; Function Attrs: mustprogress uwtable
define void @_ZNK4cvc56parser16FindSynthCommand11printResultEPNS_6SolverERSo(ptr noundef nonnull align 8 dereferenceable(56) %0, ptr readnone captures(none) %1, ptr noundef nonnull align 8 dereferenceable(8) %2) unnamed_addr #3 align 2 {
  %4 = getelementptr inbounds nuw i8, ptr %0, i64 32
  %5 = tail call noundef zeroext i1 @_ZNK4cvc54Term6isNullEv(ptr noundef nonnull align 8 dereferenceable(24) %4)
  br i1 %5, label %6, label %26

6:                                                ; preds = %3
  %7 = tail call noundef nonnull align 8 dereferenceable(8) ptr @_ZSt16__ostream_insertIcSt11char_traitsIcEERSt13basic_ostreamIT_T0_ES6_PKS3_l(ptr noundef nonnull align 8 dereferenceable(8) %2, ptr noundef nonnull @.str.27, i64 noundef 4)
  %8 = load ptr, ptr %2, align 8, !tbaa !6
  %9 = getelementptr i8, ptr %8, i64 -24
  %10 = load i64, ptr %9, align 8
  %11 = getelementptr inbounds i8, ptr %2, i64 %10
  %12 = getelementptr inbounds nuw i8, ptr %11, i64 240
  %13 = load ptr, ptr %12, align 8, !tbaa !78
  %.not.i.i.i = icmp eq ptr %13, null
  br i1 %.not.i.i.i, label %14, label %_ZSt13__check_facetISt5ctypeIcEERKT_PS3_.exit.i.i

14:                                               ; preds = %6
  tail call void @_ZSt16__throw_bad_castv() #36
  unreachable

_ZSt13__check_facetISt5ctypeIcEERKT_PS3_.exit.i.i: ; preds = %6
  %15 = getelementptr inbounds nuw i8, ptr %13, i64 56
  %16 = load i8, ptr %15, align 8, !tbaa !86
  %.not.i1.i.i = icmp eq i8 %16, 0
  br i1 %.not.i1.i.i, label %20, label %17

17:                                               ; preds = %_ZSt13__check_facetISt5ctypeIcEERKT_PS3_.exit.i.i
  %18 = getelementptr inbounds nuw i8, ptr %13, i64 67
  %19 = load i8, ptr %18, align 1, !tbaa !3
  br label %_ZSt4endlIcSt11char_traitsIcEERSt13basic_ostreamIT_T0_ES6_.exit

20:                                               ; preds = %_ZSt13__check_facetISt5ctypeIcEERKT_PS3_.exit.i.i
  tail call void @_ZNKSt5ctypeIcE13_M_widen_initEv(ptr noundef nonnull align 8 dereferenceable(570) %13)
  %21 = load ptr, ptr %13, align 8, !tbaa !6
  %22 = getelementptr inbounds nuw i8, ptr %21, i64 48
  %23 = load ptr, ptr %22, align 8
  %24 = tail call noundef signext i8 %23(ptr noundef nonnull align 8 dereferenceable(570) %13, i8 noundef signext 10)
  br label %_ZSt4endlIcSt11char_traitsIcEERSt13basic_ostreamIT_T0_ES6_.exit

_ZSt4endlIcSt11char_traitsIcEERSt13basic_ostreamIT_T0_ES6_.exit: ; preds = %17, %20
  %.0.i.i.i = phi i8 [ %19, %17 ], [ %24, %20 ]
  %25 = tail call noundef nonnull align 8 dereferenceable(8) ptr @_ZNSo3putEc(ptr noundef nonnull align 8 dereferenceable(8) %2, i8 noundef signext %.0.i.i.i)
  br label %46

26:                                               ; preds = %3
  %27 = tail call noundef nonnull align 8 dereferenceable(8) ptr @_ZN4cvc5lsERSoRKNS_4TermE(ptr noundef nonnull align 8 dereferenceable(8) %2, ptr noundef nonnull align 8 dereferenceable(24) %4)
  %28 = load ptr, ptr %27, align 8, !tbaa !6
  %29 = getelementptr i8, ptr %28, i64 -24
  %30 = load i64, ptr %29, align 8
  %31 = getelementptr inbounds i8, ptr %27, i64 %30
  %32 = getelementptr inbounds nuw i8, ptr %31, i64 240
  %33 = load ptr, ptr %32, align 8, !tbaa !78
  %.not.i.i.i3 = icmp eq ptr %33, null
  br i1 %.not.i.i.i3, label %34, label %_ZSt13__check_facetISt5ctypeIcEERKT_PS3_.exit.i.i4

34:                                               ; preds = %26
  tail call void @_ZSt16__throw_bad_castv() #36
  unreachable

_ZSt13__check_facetISt5ctypeIcEERKT_PS3_.exit.i.i4: ; preds = %26
  %35 = getelementptr inbounds nuw i8, ptr %33, i64 56
  %36 = load i8, ptr %35, align 8, !tbaa !86
  %.not.i1.i.i5 = icmp eq i8 %36, 0
  br i1 %.not.i1.i.i5, label %40, label %37

37:                                               ; preds = %_ZSt13__check_facetISt5ctypeIcEERKT_PS3_.exit.i.i4
  %38 = getelementptr inbounds nuw i8, ptr %33, i64 67
  %39 = load i8, ptr %38, align 1, !tbaa !3
  br label %_ZSt4endlIcSt11char_traitsIcEERSt13basic_ostreamIT_T0_ES6_.exit7

40:                                               ; preds = %_ZSt13__check_facetISt5ctypeIcEERKT_PS3_.exit.i.i4
  tail call void @_ZNKSt5ctypeIcE13_M_widen_initEv(ptr noundef nonnull align 8 dereferenceable(570) %33)
  %41 = load ptr, ptr %33, align 8, !tbaa !6
  %42 = getelementptr inbounds nuw i8, ptr %41, i64 48
  %43 = load ptr, ptr %42, align 8
  %44 = tail call noundef signext i8 %43(ptr noundef nonnull align 8 dereferenceable(570) %33, i8 noundef signext 10)
  br label %_ZSt4endlIcSt11char_traitsIcEERSt13basic_ostreamIT_T0_ES6_.exit7

_ZSt4endlIcSt11char_traitsIcEERSt13basic_ostreamIT_T0_ES6_.exit7: ; preds = %37, %40
  %.0.i.i.i6 = phi i8 [ %39, %37 ], [ %44, %40 ]
  %45 = tail call noundef nonnull align 8 dereferenceable(8) ptr @_ZNSo3putEc(ptr noundef nonnull align 8 dereferenceable(8) %27, i8 noundef signext %.0.i.i.i6)
  br label %46

46:                                               ; preds = %_ZSt4endlIcSt11char_traitsIcEERSt13basic_ostreamIT_T0_ES6_.exit7, %_ZSt4endlIcSt11char_traitsIcEERSt13basic_ostreamIT_T0_ES6_.exit
  %.sink = phi ptr [ %45, %_ZSt4endlIcSt11char_traitsIcEERSt13basic_ostreamIT_T0_ES6_.exit7 ], [ %25, %_ZSt4endlIcSt11char_traitsIcEERSt13basic_ostreamIT_T0_ES6_.exit ]
  %47 = tail call noundef nonnull align 8 dereferenceable(8) ptr @_ZNSo5flushEv(ptr noundef nonnull align 8 dereferenceable(8) %.sink)
  ret void
}